target datalayout = "e-m:e-p270:32:32-p271:32:32-p272:64:64-i64:64-i128:128-f80:128-n8:16:32:64-S128"
target triple = "x86_64-pc-linux-gnu"

%struct.ItemPointerData = type { %struct.BlockIdData, i16 }
%struct.BlockIdData = type { i16, i16 }
%struct.TupleTableSlot = type { i32, i16, i16, ptr, ptr, ptr, ptr, ptr, %struct.ItemPointerData, i32 }
%struct.TupleDescData = type { i32, i32, i32, i32, ptr, [0 x %struct.CompactAttribute] }
%struct.CompactAttribute = type { i32, i16, i8, i8, i8, i8, i8, i8, i8 }
%struct.RelationData = type { %struct.RelFileLocator, ptr, i32, i32, i8, i8, i8, i8, i8, i32, i32, i32, i32, ptr, ptr, i32, %struct.LockInfoData, ptr, ptr, ptr, ptr, ptr, i8, ptr, ptr, ptr, ptr, ptr, ptr, i32, ptr, i8, ptr, ptr, i32, i8, i32, ptr, i8, ptr, ptr, ptr, ptr, ptr, ptr, ptr, i32, ptr, ptr, ptr, ptr, ptr, ptr, ptr, ptr, ptr, ptr, ptr, ptr, ptr, ptr, ptr, ptr, ptr, ptr, ptr, i32, i8, ptr }
%struct.RelFileLocator = type { i32, i32, i32 }
%struct.LockInfoData = type { %struct.LockRelId }
%struct.LockRelId = type { i32, i32 }
%struct.FormData_pg_class = type { i32, %struct.nameData, i32, i32, i32, i32, i32, i32, i32, i32, float, i32, i32, i8, i8, i8, i8, i16, i16, i8, i8, i8, i8, i8, i8, i8, i8, i32, i32, i32 }
%struct.nameData = type { [64 x i8] }
%struct.ResultRelInfo = type { i32, i32, ptr, i32, ptr, ptr, i16, ptr, i8, ptr, ptr, ptr, i8, i8, ptr, ptr, ptr, ptr, ptr, ptr, ptr, ptr, ptr, ptr, i8, i32, i32, i32, ptr, ptr, ptr, ptr, ptr, ptr, ptr, i32, i32, ptr, ptr, ptr, ptr, [3 x ptr], ptr, ptr, ptr, i8, ptr, i8, ptr, ptr, ptr, ptr }
%struct.TriggerDesc = type { ptr, i32, i8, i8, i8, i8, i8, i8, i8, i8, i8, i8, i8, i8, i8, i8, i8, i8, i8, i8, i8, i8, i8 }
%struct.TupleConstr = type { ptr, ptr, ptr, i16, i16, i8, i8, i8 }
%struct.EState = type { i32, i32, ptr, ptr, ptr, i32, ptr, ptr, ptr, ptr, ptr, ptr, ptr, ptr, ptr, ptr, i32, ptr, ptr, ptr, ptr, ptr, ptr, ptr, ptr, ptr, ptr, i64, i64, i32, i32, i8, ptr, ptr, ptr, ptr, ptr, i8, i32, i32, ptr, i32, ptr, ptr, ptr, ptr }

; Function Attrs: nounwind uwtable
define dso_local void @ExecSimpleRelationUpdate(ptr noundef %0, ptr noundef %1, ptr noundef %2, ptr noundef %3, ptr noundef %4) #0 {
  %6 = alloca ptr, align 8
  %7 = alloca ptr, align 8
  %8 = alloca ptr, align 8
  %9 = alloca ptr, align 8
  %10 = alloca ptr, align 8
  %11 = alloca i8, align 1
  %12 = alloca ptr, align 8
  %13 = alloca ptr, align 8
  %14 = alloca ptr, align 8
  %15 = alloca i32, align 4
  %16 = alloca ptr, align 8
  %17 = alloca i8, align 1
  store ptr %0, ptr %6, align 8
  store ptr %1, ptr %7, align 8
  store ptr %2, ptr %8, align 8
  store ptr %3, ptr %9, align 8
  store ptr %4, ptr %10, align 8
  call void @llvm.lifetime.start.p0(i64 1, ptr %11) #7
  store i8 0, ptr %11, align 1
  call void @llvm.lifetime.start.p0(i64 8, ptr %12) #7
  %18 = load ptr, ptr %6, align 8
  %19 = getelementptr inbounds nuw %struct.ResultRelInfo, ptr %18, i32 0, i32 2
  %20 = load ptr, ptr %19, align 8
  store ptr %20, ptr %12, align 8
  call void @llvm.lifetime.start.p0(i64 8, ptr %13) #7
  %21 = load ptr, ptr %9, align 8
  %22 = getelementptr inbounds nuw %struct.TupleTableSlot, ptr %21, i32 0, i32 8
  store ptr %22, ptr %13, align 8
  %23 = load ptr, ptr %12, align 8
  call void @CheckCmdReplicaIdentity(ptr noundef %23, i32 noundef 2)
  %24 = load ptr, ptr %6, align 8
  %25 = getelementptr inbounds nuw %struct.ResultRelInfo, ptr %24, i32 0, i32 14
  %26 = load ptr, ptr %25, align 8
  %27 = icmp ne ptr %26, null
  br i1 %27, label %28, label %44

28:                                               ; preds = %5
  %29 = load ptr, ptr %6, align 8
  %30 = getelementptr inbounds nuw %struct.ResultRelInfo, ptr %29, i32 0, i32 14
  %31 = load ptr, ptr %30, align 8
  %32 = getelementptr inbounds nuw %struct.TriggerDesc, ptr %31, i32 0, i32 7
  %33 = load i8, ptr %32, align 1, !range !4, !noundef !5
  %34 = trunc i8 %33 to i1
  br i1 %34, label %35, label %44

35:                                               ; preds = %28
  %36 = load ptr, ptr %7, align 8
  %37 = load ptr, ptr %8, align 8
  %38 = load ptr, ptr %6, align 8
  %39 = load ptr, ptr %13, align 8
  %40 = load ptr, ptr %10, align 8
  %41 = call zeroext i1 @ExecBRUpdateTriggers(ptr noundef %36, ptr noundef %37, ptr noundef %38, ptr noundef %39, ptr noundef null, ptr noundef %40, ptr noundef null, ptr noundef null)
  br i1 %41, label %43, label %42

42:                                               ; preds = %35
  store i8 1, ptr %11, align 1
  br label %43

43:                                               ; preds = %42, %35
  br label %44

44:                                               ; preds = %43, %28, %5
  %45 = load i8, ptr %11, align 1, !range !4, !noundef !5
  %46 = trunc i8 %45 to i1
  br i1 %46, label %135, label %47

47:                                               ; preds = %44
  call void @llvm.lifetime.start.p0(i64 8, ptr %14) #7
  store ptr null, ptr %14, align 8
  call void @llvm.lifetime.start.p0(i64 4, ptr %15) #7
  call void @llvm.lifetime.start.p0(i64 8, ptr %16) #7
  call void @llvm.lifetime.start.p0(i64 1, ptr %17) #7
  store i8 0, ptr %17, align 1
  %48 = load ptr, ptr %12, align 8
  %49 = getelementptr inbounds nuw %struct.RelationData, ptr %48, i32 0, i32 14
  %50 = load ptr, ptr %49, align 8
  %51 = getelementptr inbounds nuw %struct.TupleDescData, ptr %50, i32 0, i32 4
  %52 = load ptr, ptr %51, align 8
  %53 = icmp ne ptr %52, null
  br i1 %53, label %54, label %67

54:                                               ; preds = %47
  %55 = load ptr, ptr %12, align 8
  %56 = getelementptr inbounds nuw %struct.RelationData, ptr %55, i32 0, i32 14
  %57 = load ptr, ptr %56, align 8
  %58 = getelementptr inbounds nuw %struct.TupleDescData, ptr %57, i32 0, i32 4
  %59 = load ptr, ptr %58, align 8
  %60 = getelementptr inbounds nuw %struct.TupleConstr, ptr %59, i32 0, i32 6
  %61 = load i8, ptr %60, align 1, !range !4, !noundef !5
  %62 = trunc i8 %61 to i1
  br i1 %62, label %63, label %67

63:                                               ; preds = %54
  %64 = load ptr, ptr %6, align 8
  %65 = load ptr, ptr %7, align 8
  %66 = load ptr, ptr %10, align 8
  call void @ExecComputeStoredGenerated(ptr noundef %64, ptr noundef %65, ptr noundef %66, i32 noundef 2)
  br label %67

67:                                               ; preds = %63, %54, %47
  %68 = load ptr, ptr %12, align 8
  %69 = getelementptr inbounds nuw %struct.RelationData, ptr %68, i32 0, i32 14
  %70 = load ptr, ptr %69, align 8
  %71 = getelementptr inbounds nuw %struct.TupleDescData, ptr %70, i32 0, i32 4
  %72 = load ptr, ptr %71, align 8
  %73 = icmp ne ptr %72, null
  br i1 %73, label %74, label %78

74:                                               ; preds = %67
  %75 = load ptr, ptr %6, align 8
  %76 = load ptr, ptr %10, align 8
  %77 = load ptr, ptr %7, align 8
  call void @ExecConstraints(ptr noundef %75, ptr noundef %76, ptr noundef %77)
  br label %78

78:                                               ; preds = %74, %67
  %79 = load ptr, ptr %12, align 8
  %80 = getelementptr inbounds nuw %struct.RelationData, ptr %79, i32 0, i32 13
  %81 = load ptr, ptr %80, align 8
  %82 = getelementptr inbounds nuw %struct.FormData_pg_class, ptr %81, i32 0, i32 26
  %83 = load i8, ptr %82, align 1, !range !4, !noundef !5
  %84 = trunc i8 %83 to i1
  br i1 %84, label %85, label %90

85:                                               ; preds = %78
  %86 = load ptr, ptr %6, align 8
  %87 = load ptr, ptr %10, align 8
  %88 = load ptr, ptr %7, align 8
  %89 = call zeroext i1 @ExecPartitionCheck(ptr noundef %86, ptr noundef %87, ptr noundef %88, i1 noundef zeroext true)
  br label %90

90:                                               ; preds = %85, %78
  %91 = load ptr, ptr %12, align 8
  %92 = load ptr, ptr %13, align 8
  %93 = load ptr, ptr %10, align 8
  %94 = load ptr, ptr %7, align 8
  %95 = getelementptr inbounds nuw %struct.EState, ptr %94, i32 0, i32 2
  %96 = load ptr, ptr %95, align 8
  call void @simple_table_tuple_update(ptr noundef %91, ptr noundef %92, ptr noundef %93, ptr noundef %96, ptr noundef %15)
  %97 = load ptr, ptr %6, align 8
  %98 = getelementptr inbounds nuw %struct.ResultRelInfo, ptr %97, i32 0, i32 39
  %99 = load ptr, ptr %98, align 8
  store ptr %99, ptr %16, align 8
  %100 = load ptr, ptr %6, align 8
  %101 = getelementptr inbounds nuw %struct.ResultRelInfo, ptr %100, i32 0, i32 3
  %102 = load i32, ptr %101, align 8
  %103 = icmp sgt i32 %102, 0
  br i1 %103, label %104, label %119

104:                                              ; preds = %90
  %105 = load i32, ptr %15, align 4
  %106 = icmp ne i32 %105, 0
  br i1 %106, label %107, label %119

107:                                              ; preds = %104
  %108 = load ptr, ptr %6, align 8
  %109 = load ptr, ptr %10, align 8
  %110 = load ptr, ptr %7, align 8
  %111 = load ptr, ptr %16, align 8
  %112 = icmp ne ptr %111, null
  %113 = select i1 %112, i32 1, i32 0
  %114 = icmp ne i32 %113, 0
  %115 = load ptr, ptr %16, align 8
  %116 = load i32, ptr %15, align 4
  %117 = icmp eq i32 %116, 2
  %118 = call ptr @ExecInsertIndexTuples(ptr noundef %108, ptr noundef %109, ptr noundef %110, i1 noundef zeroext true, i1 noundef zeroext %114, ptr noundef %17, ptr noundef %115, i1 noundef zeroext %117)
  store ptr %118, ptr %14, align 8
  br label %119

119:                                              ; preds = %107, %104, %90
  %120 = load i8, ptr %17, align 1, !range !4, !noundef !5
  %121 = trunc i8 %120 to i1
  br i1 %121, label %122, label %128

122:                                              ; preds = %119
  %123 = load ptr, ptr %6, align 8
  %124 = load ptr, ptr %7, align 8
  %125 = load ptr, ptr %14, align 8
  %126 = load ptr, ptr %9, align 8
  %127 = load ptr, ptr %10, align 8
  call void @CheckAndReportConflict(ptr noundef %123, ptr noundef %124, i32 noundef 2, ptr noundef %125, ptr noundef %126, ptr noundef %127)
  br label %128

128:                                              ; preds = %122, %119
  %129 = load ptr, ptr %7, align 8
  %130 = load ptr, ptr %6, align 8
  %131 = load ptr, ptr %13, align 8
  %132 = load ptr, ptr %10, align 8
  %133 = load ptr, ptr %14, align 8
  call void @ExecARUpdateTriggers(ptr noundef %129, ptr noundef %130, ptr noundef null, ptr noundef null, ptr noundef %131, ptr noundef null, ptr noundef %132, ptr noundef %133, ptr noundef null, i1 noundef zeroext false)
  %134 = load ptr, ptr %14, align 8
  call void @list_free(ptr noundef %134)
  call void @llvm.lifetime.end.p0(i64 1, ptr %17) #7
  call void @llvm.lifetime.end.p0(i64 8, ptr %16) #7
  call void @llvm.lifetime.end.p0(i64 4, ptr %15) #7
  call void @llvm.lifetime.end.p0(i64 8, ptr %14) #7
  br label %135

135:                                              ; preds = %128, %44
  call void @llvm.lifetime.end.p0(i64 8, ptr %13) #7
  call void @llvm.lifetime.end.p0(i64 8, ptr %12) #7
  call void @llvm.lifetime.end.p0(i64 1, ptr %11) #7
  ret void
}