; Function Attrs: nounwind uwtable
define dso_local void @ExecSimpleRelationUpdate(ptr noundef %0, ptr noundef %1, ptr noundef %2, ptr noundef %3, ptr noundef %4) local_unnamed_addr #0 {
  %6 = alloca i32, align 4
  %7 = alloca i8, align 1
  %8 = getelementptr inbounds nuw i8, ptr %0, i64 8
  %9 = load ptr, ptr %8, align 8
  %10 = getelementptr inbounds nuw i8, ptr %3, i64 48
  tail call void @CheckCmdReplicaIdentity(ptr noundef %9, i32 noundef 2)
  %11 = getelementptr inbounds nuw i8, ptr %0, i64 96
  %12 = load ptr, ptr %11, align 8
  %.not = icmp eq ptr %12, null
  br i1 %.not, label %.critedge, label %13

13:                                               ; preds = %5
  %14 = getelementptr inbounds nuw i8, ptr %12, i64 17
  %15 = load i8, ptr %14, align 1, !range !4, !noundef !5
  %16 = trunc nuw i8 %15 to i1
  br i1 %16, label %17, label %.critedge

17:                                               ; preds = %13
  %18 = tail call zeroext i1 @ExecBRUpdateTriggers(ptr noundef %1, ptr noundef %2, ptr noundef nonnull %0, ptr noundef nonnull %10, ptr noundef null, ptr noundef %4, ptr noundef null, ptr noundef null) #5
  br i1 %18, label %.critedge, label %52

.critedge:                                        ; preds = %13, %5, %17
  call void @llvm.lifetime.start.p0(i64 4, ptr nonnull %6) #5
  call void @llvm.lifetime.start.p0(i64 1, ptr nonnull %7) #5
  store i8 0, ptr %7, align 1
  %19 = getelementptr inbounds nuw i8, ptr %9, i64 64
  %20 = load ptr, ptr %19, align 8
  %21 = getelementptr inbounds nuw i8, ptr %20, i64 16
  %22 = load ptr, ptr %21, align 8
  %.not50 = icmp eq ptr %22, null
  br i1 %.not50, label %.thread, label %23

23:                                               ; preds = %.critedge
  %24 = getelementptr inbounds nuw i8, ptr %22, i64 29
  %25 = load i8, ptr %24, align 1, !range !4, !noundef !5
  %26 = trunc nuw i8 %25 to i1
  br i1 %26, label %27, label %.thread55

27:                                               ; preds = %23
  tail call void @ExecComputeStoredGenerated(ptr noundef nonnull %0, ptr noundef %1, ptr noundef %4, i32 noundef 2) #5
  %.pre = load ptr, ptr %19, align 8
  %.phi.trans.insert = getelementptr inbounds nuw i8, ptr %.pre, i64 16
  %.pre52 = load ptr, ptr %.phi.trans.insert, align 8
  %28 = icmp eq ptr %.pre52, null
  br i1 %28, label %.thread, label %.thread55

.thread55:                                        ; preds = %23, %27
  tail call void @ExecConstraints(ptr noundef nonnull %0, ptr noundef %4, ptr noundef %1) #5
  br label %.thread

.thread:                                          ; preds = %.critedge, %.thread55, %27
  %29 = getelementptr inbounds nuw i8, ptr %9, i64 56
  %30 = load ptr, ptr %29, align 8
  %31 = getelementptr inbounds nuw i8, ptr %30, i64 127
  %32 = load i8, ptr %31, align 1, !range !4, !noundef !5
  %33 = trunc nuw i8 %32 to i1
  br i1 %33, label %34, label %36

34:                                               ; preds = %.thread
  %35 = tail call zeroext i1 @ExecPartitionCheck(ptr noundef nonnull %0, ptr noundef %4, ptr noundef %1, i1 noundef zeroext true) #5
  br label %36

36:                                               ; preds = %34, %.thread
  %37 = getelementptr inbounds nuw i8, ptr %1, i64 8
  %38 = load ptr, ptr %37, align 8
  call void @simple_table_tuple_update(ptr noundef nonnull %9, ptr noundef nonnull %10, ptr noundef %4, ptr noundef %38, ptr noundef nonnull %6) #5
  %39 = getelementptr inbounds nuw i8, ptr %0, i64 16
  %40 = load i32, ptr %39, align 8
  %41 = icmp sgt i32 %40, 0
  %42 = load i32, ptr %6, align 4
  %43 = icmp ne i32 %42, 0
  %or.cond = select i1 %41, i1 %43, i1 false
  br i1 %or.cond, label %44, label %.thread57

44:                                               ; preds = %36
  %45 = getelementptr inbounds nuw i8, ptr %0, i64 272
  %46 = load ptr, ptr %45, align 8
  %47 = icmp ne ptr %46, null
  %48 = icmp eq i32 %42, 2
  %49 = call ptr @ExecInsertIndexTuples(ptr noundef nonnull %0, ptr noundef %4, ptr noundef nonnull %1, i1 noundef zeroext true, i1 noundef zeroext %47, ptr noundef nonnull %7, ptr noundef %46, i1 noundef zeroext %48) #5
  %.pre53 = load i8, ptr %7, align 1, !range !4
  %50 = trunc nuw i8 %.pre53 to i1
  br i1 %50, label %51, label %.thread57

51:                                               ; preds = %44
  call fastcc void @CheckAndReportConflict(ptr noundef nonnull %0, ptr noundef nonnull %1, i32 noundef 2, ptr noundef %49, ptr noundef nonnull %3, ptr noundef %4)
  br label %.thread57

.thread57:                                        ; preds = %36, %51, %44
  %.04659 = phi ptr [ %49, %51 ], [ %49, %44 ], [ null, %36 ]
  call void @ExecARUpdateTriggers(ptr noundef nonnull %1, ptr noundef nonnull %0, ptr noundef null, ptr noundef null, ptr noundef nonnull %10, ptr noundef null, ptr noundef %4, ptr noundef %.04659, ptr noundef null, i1 noundef zeroext false) #5
  call void @list_free(ptr noundef %.04659) #5
  call void @llvm.lifetime.end.p0(i64 1, ptr nonnull %7) #5
  call void @llvm.lifetime.end.p0(i64 4, ptr nonnull %6) #5
  br label %52

52:                                               ; preds = %.thread57, %17
  ret void
}